target datalayout = "e-m:e-p270:32:32-p271:32:32-p272:64:64-i64:64-i128:128-f80:128-n8:16:32:64-S128"
target triple = "x86_64-pc-linux-gnu"

%struct.Ivy_Dec_t_ = type { i32 }
%struct.Vec_Int_t_ = type { i32, i32, ptr }
%union.anon = type { %struct.Ivy_Dec_t_ }
%union.anon.0 = type { %struct.Ivy_Dec_t_ }

@.str = private unnamed_addr constant [22 x i8] c"Verification failed.\0A\00", align 1

; Function Attrs: nounwind uwtable
define internal i32 @Vec_IntSize(ptr noundef %0) #0 {
  %2 = alloca ptr, align 8
  store ptr %0, ptr %2, align 8
  %3 = load ptr, ptr %2, align 8
  %4 = getelementptr inbounds %struct.Vec_Int_t_, ptr %3, i32 0, i32 1
  %5 = load i32, ptr %4, align 4
  ret i32 %5
}

; Function Attrs: nounwind uwtable
define internal void @Vec_IntGrow(ptr noundef %0, i32 noundef %1) #0 {
  %3 = alloca ptr, align 8
  %4 = alloca i32, align 4
  store ptr %0, ptr %3, align 8
  store i32 %1, ptr %4, align 4
  %5 = load ptr, ptr %3, align 8
  %6 = getelementptr inbounds %struct.Vec_Int_t_, ptr %5, i32 0, i32 0
  %7 = load i32, ptr %6, align 8
  %8 = load i32, ptr %4, align 4
  %9 = icmp sge i32 %7, %8
  br i1 %9, label %10, label %11

10:                                               ; preds = %2
  br label %36

11:                                               ; preds = %2
  %12 = load ptr, ptr %3, align 8
  %13 = getelementptr inbounds %struct.Vec_Int_t_, ptr %12, i32 0, i32 2
  %14 = load ptr, ptr %13, align 8
  %15 = icmp ne ptr %14, null
  br i1 %15, label %16, label %24

16:                                               ; preds = %11
  %17 = load ptr, ptr %3, align 8
  %18 = getelementptr inbounds %struct.Vec_Int_t_, ptr %17, i32 0, i32 2
  %19 = load ptr, ptr %18, align 8
  %20 = load i32, ptr %4, align 4
  %21 = sext i32 %20 to i64
  %22 = mul i64 4, %21
  %23 = call ptr @realloc(ptr noundef %19, i64 noundef %22) #8
  br label %29

24:                                               ; preds = %11
  %25 = load i32, ptr %4, align 4
  %26 = sext i32 %25 to i64
  %27 = mul i64 4, %26
  %28 = call noalias ptr @malloc(i64 noundef %27) #7
  br label %29

29:                                               ; preds = %24, %16
  %30 = phi ptr [ %23, %16 ], [ %28, %24 ]
  %31 = load ptr, ptr %3, align 8
  %32 = getelementptr inbounds %struct.Vec_Int_t_, ptr %31, i32 0, i32 2
  store ptr %30, ptr %32, align 8
  %33 = load i32, ptr %4, align 4
  %34 = load ptr, ptr %3, align 8
  %35 = getelementptr inbounds %struct.Vec_Int_t_, ptr %34, i32 0, i32 0
  store i32 %33, ptr %35, align 8
  br label %36

36:                                               ; preds = %29, %10
  ret void
}

; Function Attrs: nounwind uwtable
define i32 @Ivy_TruthDsdCompute(ptr noundef %0) #0 {
  %2 = alloca ptr, align 8
  store ptr %0, ptr %2, align 8
  %3 = load ptr, ptr %2, align 8
  %4 = call i32 @Vec_IntSize(ptr noundef %3)
  %5 = sub nsw i32 %4, 1
  %6 = load ptr, ptr %2, align 8
  %7 = call i32 @Ivy_TruthDsdCompute_rec(i32 noundef %5, ptr noundef %6)
  ret i32 %7
}

; Function Attrs: nounwind uwtable
define internal i32 @Ivy_IntToDec(i32 noundef %0) #0 {
  %2 = alloca %struct.Ivy_Dec_t_, align 4
  %3 = alloca i32, align 4
  %4 = alloca %union.anon.0, align 4
  store i32 %0, ptr %3, align 4
  %5 = load i32, ptr %3, align 4
  store i32 %5, ptr %4, align 4
  call void @llvm.memcpy.p0.p0.i64(ptr align 4 %2, ptr align 4 %4, i64 4, i1 false)
  %6 = getelementptr inbounds %struct.Ivy_Dec_t_, ptr %2, i32 0, i32 0
  %7 = load i32, ptr %6, align 4
  ret i32 %7
}

; Function Attrs: nounwind uwtable
define internal i32 @Vec_IntPop(ptr noundef %0) #0 {
  %2 = alloca ptr, align 8
  store ptr %0, ptr %2, align 8
  %3 = load ptr, ptr %2, align 8
  %4 = getelementptr inbounds %struct.Vec_Int_t_, ptr %3, i32 0, i32 2
  %5 = load ptr, ptr %4, align 8
  %6 = load ptr, ptr %2, align 8
  %7 = getelementptr inbounds %struct.Vec_Int_t_, ptr %6, i32 0, i32 1
  %8 = load i32, ptr %7, align 4
  %9 = add nsw i32 %8, -1
  store i32 %9, ptr %7, align 4
  %10 = sext i32 %9 to i64
  %11 = getelementptr inbounds i32, ptr %5, i64 %10
  %12 = load i32, ptr %11, align 4
  ret i32 %12
}

; Function Attrs: nounwind uwtable
define internal i32 @Ivy_DecToInt(i32 %0) #0 {
  %2 = alloca %struct.Ivy_Dec_t_, align 4
  %3 = alloca %union.anon, align 4
  %4 = getelementptr inbounds %struct.Ivy_Dec_t_, ptr %2, i32 0, i32 0
  store i32 %0, ptr %4, align 4
  call void @llvm.memcpy.p0.p0.i64(ptr align 4 %3, ptr align 4 %2, i64 4, i1 false)
  %5 = load i32, ptr %3, align 4
  ret i32 %5
}

; Function Attrs: nounwind uwtable
define internal void @Ivy_DecClear(ptr noundef %0) #0 {
  %2 = alloca ptr, align 8
  %3 = alloca %struct.Ivy_Dec_t_, align 4
  store ptr %0, ptr %2, align 8
  %4 = load ptr, ptr %2, align 8
  %5 = call i32 @Ivy_IntToDec(i32 noundef 0)
  %6 = getelementptr inbounds %struct.Ivy_Dec_t_, ptr %3, i32 0, i32 0
  store i32 %5, ptr %6, align 4
  call void @llvm.memcpy.p0.p0.i64(ptr align 4 %4, ptr align 4 %3, i64 4, i1 false)
  ret void
}

; Function Attrs: nounwind uwtable
define internal void @Vec_IntPush(ptr noundef %0, i32 noundef %1) #0 {
  %3 = alloca ptr, align 8
  %4 = alloca i32, align 4
  store ptr %0, ptr %3, align 8
  store i32 %1, ptr %4, align 4
  %5 = load ptr, ptr %3, align 8
  %6 = getelementptr inbounds %struct.Vec_Int_t_, ptr %5, i32 0, i32 1
  %7 = load i32, ptr %6, align 4
  %8 = load ptr, ptr %3, align 8
  %9 = getelementptr inbounds %struct.Vec_Int_t_, ptr %8, i32 0, i32 0
  %10 = load i32, ptr %9, align 8
  %11 = icmp eq i32 %7, %10
  br i1 %11, label %12, label %26

12:                                               ; preds = %2
  %13 = load ptr, ptr %3, align 8
  %14 = getelementptr inbounds %struct.Vec_Int_t_, ptr %13, i32 0, i32 0
  %15 = load i32, ptr %14, align 8
  %16 = icmp slt i32 %15, 16
  br i1 %16, label %17, label %19

17:                                               ; preds = %12
  %18 = load ptr, ptr %3, align 8
  call void @Vec_IntGrow(ptr noundef %18, i32 noundef 16)
  br label %25

19:                                               ; preds = %12
  %20 = load ptr, ptr %3, align 8
  %21 = load ptr, ptr %3, align 8
  %22 = getelementptr inbounds %struct.Vec_Int_t_, ptr %21, i32 0, i32 0
  %23 = load i32, ptr %22, align 8
  %24 = mul nsw i32 2, %23
  call void @Vec_IntGrow(ptr noundef %20, i32 noundef %24)
  br label %25

25:                                               ; preds = %19, %17
  br label %26

26:                                               ; preds = %25, %2
  %27 = load i32, ptr %4, align 4
  %28 = load ptr, ptr %3, align 8
  %29 = getelementptr inbounds %struct.Vec_Int_t_, ptr %28, i32 0, i32 2
  %30 = load ptr, ptr %29, align 8
  %31 = load ptr, ptr %3, align 8
  %32 = getelementptr inbounds %struct.Vec_Int_t_, ptr %31, i32 0, i32 1
  %33 = load i32, ptr %32, align 4
  %34 = add nsw i32 %33, 1
  store i32 %34, ptr %32, align 4
  %35 = sext i32 %33 to i64
  %36 = getelementptr inbounds i32, ptr %30, i64 %35
  store i32 %27, ptr %36, align 4
  ret void
}

; Function Attrs: nounwind uwtable
define internal void @Vec_IntClear(ptr noundef %0) #0 {
  %2 = alloca ptr, align 8
  store ptr %0, ptr %2, align 8
  %3 = load ptr, ptr %2, align 8
  %4 = getelementptr inbounds %struct.Vec_Int_t_, ptr %3, i32 0, i32 1
  store i32 0, ptr %4, align 4
  ret void
}

; Function Attrs: nounwind uwtable
define i32 @Ivy_TruthDsd(i32 noundef %0, ptr noundef %1) #0 {
  %3 = alloca i32, align 4
  %4 = alloca i32, align 4
  %5 = alloca ptr, align 8
  %6 = alloca %struct.Ivy_Dec_t_, align 4
  %7 = alloca i32, align 4
  %8 = alloca i32, align 4
  %9 = alloca %struct.Ivy_Dec_t_, align 4
  store i32 %0, ptr %4, align 4
  store ptr %1, ptr %5, align 8
  %10 = load ptr, ptr %5, align 8
  call void @Vec_IntClear(ptr noundef %10)
  store i32 0, ptr %7, align 4
  br label %11

11:                                               ; preds = %16, %2
  %12 = load i32, ptr %7, align 4
  %13 = icmp slt i32 %12, 5
  br i1 %13, label %14, label %19

14:                                               ; preds = %11
  %15 = load ptr, ptr %5, align 8
  call void @Vec_IntPush(ptr noundef %15, i32 noundef 0)
  br label %16

16:                                               ; preds = %14
  %17 = load i32, ptr %7, align 4
  %18 = add nsw i32 %17, 1
  store i32 %18, ptr %7, align 4
  br label %11, !llvm.loop !4

19:                                               ; preds = %11
  %20 = load i32, ptr %4, align 4
  %21 = icmp eq i32 %20, 0
  br i1 %21, label %26, label %22

22:                                               ; preds = %19
  %23 = load i32, ptr %4, align 4
  %24 = xor i32 %23, -1
  %25 = icmp eq i32 %24, 0
  br i1 %25, label %26, label %42

26:                                               ; preds = %22, %19
  call void @Ivy_DecClear(ptr noundef %6)
  %27 = load i32, ptr %6, align 4
  %28 = and i32 %27, -16
  %29 = or i32 %28, 1
  store i32 %29, ptr %6, align 4
  %30 = load i32, ptr %4, align 4
  %31 = icmp eq i32 %30, 0
  %32 = zext i1 %31 to i32
  %33 = load i32, ptr %6, align 4
  %34 = and i32 %32, 1
  %35 = shl i32 %34, 4
  %36 = and i32 %33, -17
  %37 = or i32 %36, %35
  store i32 %37, ptr %6, align 4
  %38 = load ptr, ptr %5, align 8
  %39 = getelementptr inbounds %struct.Ivy_Dec_t_, ptr %6, i32 0, i32 0
  %40 = load i32, ptr %39, align 4
  %41 = call i32 @Ivy_DecToInt(i32 %40)
  call void @Vec_IntPush(ptr noundef %38, i32 noundef %41)
  store i32 1, ptr %3, align 4
  br label %105

42:                                               ; preds = %22
  %43 = load i32, ptr %4, align 4
  %44 = load ptr, ptr %5, align 8
  %45 = call i32 @Ivy_TruthDecompose_rec(i32 noundef %43, ptr noundef %44)
  store i32 %45, ptr %8, align 4
  %46 = load i32, ptr %8, align 4
  %47 = icmp eq i32 %46, -1
  br i1 %47, label %48, label %49

48:                                               ; preds = %42
  store i32 0, ptr %3, align 4
  br label %105

49:                                               ; preds = %42
  %50 = load i32, ptr %8, align 4
  %51 = ashr i32 %50, 1
  %52 = icmp slt i32 %51, 5
  br i1 %52, label %53, label %76

53:                                               ; preds = %49
  call void @Ivy_DecClear(ptr noundef %6)
  %54 = load i32, ptr %6, align 4
  %55 = and i32 %54, -16
  %56 = or i32 %55, 2
  store i32 %56, ptr %6, align 4
  %57 = load i32, ptr %8, align 4
  %58 = and i32 %57, 1
  %59 = load i32, ptr %6, align 4
  %60 = and i32 %58, 1
  %61 = shl i32 %60, 4
  %62 = and i32 %59, -17
  %63 = or i32 %62, %61
  store i32 %63, ptr %6, align 4
  %64 = load i32, ptr %8, align 4
  %65 = ashr i32 %64, 1
  %66 = shl i32 %65, 1
  %67 = load i32, ptr %6, align 4
  %68 = and i32 %66, 15
  %69 = shl i32 %68, 8
  %70 = and i32 %67, -3841
  %71 = or i32 %70, %69
  store i32 %71, ptr %6, align 4
  %72 = load ptr, ptr %5, align 8
  %73 = getelementptr inbounds %struct.Ivy_Dec_t_, ptr %6, i32 0, i32 0
  %74 = load i32, ptr %73, align 4
  %75 = call i32 @Ivy_DecToInt(i32 %74)
  call void @Vec_IntPush(ptr noundef %72, i32 noundef %75)
  br label %97

76:                                               ; preds = %49
  %77 = load i32, ptr %8, align 4
  %78 = and i32 %77, 1
  %79 = icmp ne i32 %78, 0
  br i1 %79, label %80, label %96

80:                                               ; preds = %76
  %81 = load ptr, ptr %5, align 8
  %82 = call i32 @Vec_IntPop(ptr noundef %81)
  %83 = call i32 @Ivy_IntToDec(i32 noundef %82)
  %84 = getelementptr inbounds %struct.Ivy_Dec_t_, ptr %9, i32 0, i32 0
  store i32 %83, ptr %84, align 4
  call void @llvm.memcpy.p0.p0.i64(ptr align 4 %6, ptr align 4 %9, i64 4, i1 false)
  %85 = load i32, ptr %8, align 4
  %86 = and i32 %85, 1
  %87 = load i32, ptr %6, align 4
  %88 = and i32 %86, 1
  %89 = shl i32 %88, 4
  %90 = and i32 %87, -17
  %91 = or i32 %90, %89
  store i32 %91, ptr %6, align 4
  %92 = load ptr, ptr %5, align 8
  %93 = getelementptr inbounds %struct.Ivy_Dec_t_, ptr %6, i32 0, i32 0
  %94 = load i32, ptr %93, align 4
  %95 = call i32 @Ivy_DecToInt(i32 %94)
  call void @Vec_IntPush(ptr noundef %92, i32 noundef %95)
  br label %96

96:                                               ; preds = %80, %76
  br label %97

97:                                               ; preds = %96, %53
  %98 = load i32, ptr %4, align 4
  %99 = load ptr, ptr %5, align 8
  %100 = call i32 @Ivy_TruthDsdCompute(ptr noundef %99)
  %101 = icmp ne i32 %98, %100
  br i1 %101, label %102, label %104

102:                                              ; preds = %97
  %103 = call i32 (ptr, ...) @printf(ptr noundef @.str)
  br label %104

104:                                              ; preds = %102, %97
  store i32 1, ptr %3, align 4
  br label %105

105:                                              ; preds = %104, %48, %26
  %106 = load i32, ptr %3, align 4
  ret i32 %106
}