; Function Attrs: nounwind uwtable
define range(i32 0, 2) i32 @Ivy_TruthDsd(i32 noundef %0, ptr noundef initializes((4, 8)) %1) local_unnamed_addr #0 {
  %3 = getelementptr inbounds nuw i8, ptr %1, i64 4
  store i32 0, ptr %3, align 4
  %.phi.trans.insert.i = getelementptr inbounds nuw i8, ptr %1, i64 8
  br label %4

thread-pre-split:                                 ; preds = %Vec_IntPush.exit
  %.pr = load i32, ptr %3, align 4
  br label %4

4:                                                ; preds = %thread-pre-split, %2
  %5 = phi i32 [ %.pr, %thread-pre-split ], [ 0, %2 ]
  %.02149 = phi i32 [ %33, %thread-pre-split ], [ 0, %2 ]
  %6 = load i32, ptr %1, align 8
  %7 = icmp eq i32 %5, %6
  br i1 %7, label %8, label %.Vec_IntGrow.exit10_crit_edge.i

.Vec_IntGrow.exit10_crit_edge.i:                  ; preds = %4
  %.pre.i = load ptr, ptr %.phi.trans.insert.i, align 8
  br label %Vec_IntPush.exit

8:                                                ; preds = %4
  %9 = icmp slt i32 %5, 16
  br i1 %9, label %10, label %17

10:                                               ; preds = %8
  %11 = load ptr, ptr %.phi.trans.insert.i, align 8
  %.not9.i.i = icmp eq ptr %11, null
  br i1 %.not9.i.i, label %14, label %12

12:                                               ; preds = %10
  %13 = tail call dereferenceable_or_null(64) ptr @realloc(ptr noundef nonnull %11, i64 noundef 64) #9
  br label %Vec_IntGrow.exit.i

14:                                               ; preds = %10
  %15 = tail call noalias dereferenceable_or_null(64) ptr @malloc(i64 noundef 64) #10
  br label %Vec_IntGrow.exit.i

Vec_IntGrow.exit.i:                               ; preds = %14, %12
  %16 = phi ptr [ %13, %12 ], [ %15, %14 ]
  store ptr %16, ptr %.phi.trans.insert.i, align 8
  store i32 16, ptr %1, align 8
  br label %Vec_IntPush.exit

17:                                               ; preds = %8
  %18 = shl nuw nsw i32 %5, 1
  %19 = load ptr, ptr %.phi.trans.insert.i, align 8
  %.not9.i9.i = icmp eq ptr %19, null
  %20 = zext nneg i32 %18 to i64
  %21 = shl nuw nsw i64 %20, 2
  br i1 %.not9.i9.i, label %24, label %22

22:                                               ; preds = %17
  %23 = tail call ptr @realloc(ptr noundef nonnull %19, i64 noundef %21) #9
  br label %26

24:                                               ; preds = %17
  %25 = tail call noalias ptr @malloc(i64 noundef %21) #10
  br label %26

26:                                               ; preds = %24, %22
  %27 = phi ptr [ %23, %22 ], [ %25, %24 ]
  store ptr %27, ptr %.phi.trans.insert.i, align 8
  store i32 %18, ptr %1, align 8
  br label %Vec_IntPush.exit

Vec_IntPush.exit:                                 ; preds = %.Vec_IntGrow.exit10_crit_edge.i, %Vec_IntGrow.exit.i, %26
  %28 = phi ptr [ %.pre.i, %.Vec_IntGrow.exit10_crit_edge.i ], [ %27, %26 ], [ %16, %Vec_IntGrow.exit.i ]
  %29 = load i32, ptr %3, align 4
  %30 = add nsw i32 %29, 1
  store i32 %30, ptr %3, align 4
  %31 = sext i32 %29 to i64
  %32 = getelementptr inbounds i32, ptr %28, i64 %31
  store i32 0, ptr %32, align 4
  %33 = add nuw nsw i32 %.02149, 1
  %exitcond.not = icmp eq i32 %33, 5
  br i1 %exitcond.not, label %34, label %thread-pre-split, !llvm.loop !4

34:                                               ; preds = %Vec_IntPush.exit
  switch i32 %0, label %65 [
    i32 0, label %35
    i32 -1, label %.fold.split
  ]

.fold.split:                                      ; preds = %34
  br label %35

35:                                               ; preds = %34, %.fold.split
  %36 = phi i32 [ 17, %34 ], [ 1, %.fold.split ]
  %37 = load i32, ptr %3, align 4
  %38 = load i32, ptr %1, align 8
  %39 = icmp eq i32 %37, %38
  br i1 %39, label %40, label %.Vec_IntGrow.exit10_crit_edge.i27

.Vec_IntGrow.exit10_crit_edge.i27:                ; preds = %35
  %.pre.i29 = load ptr, ptr %.phi.trans.insert.i, align 8
  br label %Vec_IntPush.exit33

40:                                               ; preds = %35
  %41 = icmp slt i32 %37, 16
  br i1 %41, label %42, label %49

42:                                               ; preds = %40
  %43 = load ptr, ptr %.phi.trans.insert.i, align 8
  %.not9.i.i31 = icmp eq ptr %43, null
  br i1 %.not9.i.i31, label %46, label %44

44:                                               ; preds = %42
  %45 = tail call dereferenceable_or_null(64) ptr @realloc(ptr noundef nonnull %43, i64 noundef 64) #9
  br label %Vec_IntGrow.exit.i32

46:                                               ; preds = %42
  %47 = tail call noalias dereferenceable_or_null(64) ptr @malloc(i64 noundef 64) #10
  br label %Vec_IntGrow.exit.i32

Vec_IntGrow.exit.i32:                             ; preds = %46, %44
  %48 = phi ptr [ %45, %44 ], [ %47, %46 ]
  store ptr %48, ptr %.phi.trans.insert.i, align 8
  store i32 16, ptr %1, align 8
  br label %Vec_IntPush.exit33

49:                                               ; preds = %40
  %50 = shl nuw nsw i32 %37, 1
  %51 = load ptr, ptr %.phi.trans.insert.i, align 8
  %.not9.i9.i30 = icmp eq ptr %51, null
  %52 = zext nneg i32 %50 to i64
  %53 = shl nuw nsw i64 %52, 2
  br i1 %.not9.i9.i30, label %56, label %54

54:                                               ; preds = %49
  %55 = tail call ptr @realloc(ptr noundef nonnull %51, i64 noundef %53) #9
  br label %58

56:                                               ; preds = %49
  %57 = tail call noalias ptr @malloc(i64 noundef %53) #10
  br label %58

58:                                               ; preds = %56, %54
  %59 = phi ptr [ %55, %54 ], [ %57, %56 ]
  store ptr %59, ptr %.phi.trans.insert.i, align 8
  store i32 %50, ptr %1, align 8
  br label %Vec_IntPush.exit33

Vec_IntPush.exit33:                               ; preds = %.Vec_IntGrow.exit10_crit_edge.i27, %Vec_IntGrow.exit.i32, %58
  %60 = phi ptr [ %.pre.i29, %.Vec_IntGrow.exit10_crit_edge.i27 ], [ %59, %58 ], [ %48, %Vec_IntGrow.exit.i32 ]
  %61 = load i32, ptr %3, align 4
  %62 = add nsw i32 %61, 1
  store i32 %62, ptr %3, align 4
  %63 = sext i32 %61 to i64
  %64 = getelementptr inbounds i32, ptr %60, i64 %63
  store i32 %36, ptr %64, align 4
  br label %125

65:                                               ; preds = %34
  %66 = tail call fastcc i32 @Ivy_TruthDecompose_rec(i32 noundef %0, ptr noundef nonnull %1)
  %67 = icmp eq i32 %66, -1
  br i1 %67, label %125, label %68

68:                                               ; preds = %65
  %69 = icmp slt i32 %66, 10
  br i1 %69, label %70, label %100

70:                                               ; preds = %68
  %71 = shl i32 %66, 4
  %72 = and i32 %71, 16
  %73 = shl i32 %66, 8
  %74 = and i32 %73, 3584
  %75 = or disjoint i32 %74, %72
  %76 = or disjoint i32 %75, 2
  %77 = load i32, ptr %3, align 4
  %78 = load i32, ptr %1, align 8
  %79 = icmp eq i32 %77, %78
  br i1 %79, label %80, label %.Vec_IntGrow.exit10_crit_edge.i34

.Vec_IntGrow.exit10_crit_edge.i34:                ; preds = %70
  %.pre.i36 = load ptr, ptr %.phi.trans.insert.i, align 8
  br label %.sink.split

80:                                               ; preds = %70
  %81 = icmp slt i32 %77, 16
  br i1 %81, label %82, label %89

82:                                               ; preds = %80
  %83 = load ptr, ptr %.phi.trans.insert.i, align 8
  %.not9.i.i38 = icmp eq ptr %83, null
  br i1 %.not9.i.i38, label %86, label %84

84:                                               ; preds = %82
  %85 = tail call dereferenceable_or_null(64) ptr @realloc(ptr noundef nonnull %83, i64 noundef 64) #9
  br label %Vec_IntGrow.exit.i39

86:                                               ; preds = %82
  %87 = tail call noalias dereferenceable_or_null(64) ptr @malloc(i64 noundef 64) #10
  br label %Vec_IntGrow.exit.i39

Vec_IntGrow.exit.i39:                             ; preds = %86, %84
  %88 = phi ptr [ %85, %84 ], [ %87, %86 ]
  store ptr %88, ptr %.phi.trans.insert.i, align 8
  store i32 16, ptr %1, align 8
  br label %.sink.split

89:                                               ; preds = %80
  %90 = shl nuw nsw i32 %77, 1
  %91 = load ptr, ptr %.phi.trans.insert.i, align 8
  %.not9.i9.i37 = icmp eq ptr %91, null
  %92 = zext nneg i32 %90 to i64
  %93 = shl nuw nsw i64 %92, 2
  br i1 %.not9.i9.i37, label %96, label %94

94:                                               ; preds = %89
  %95 = tail call ptr @realloc(ptr noundef nonnull %91, i64 noundef %93) #9
  br label %98

96:                                               ; preds = %89
  %97 = tail call noalias ptr @malloc(i64 noundef %93) #10
  br label %98

98:                                               ; preds = %96, %94
  %99 = phi ptr [ %95, %94 ], [ %97, %96 ]
  store ptr %99, ptr %.phi.trans.insert.i, align 8
  store i32 %90, ptr %1, align 8
  br label %.sink.split

100:                                              ; preds = %68
  %101 = and i32 %66, 1
  %.not = icmp eq i32 %101, 0
  br i1 %.not, label %121, label %102

102:                                              ; preds = %100
  %103 = load ptr, ptr %.phi.trans.insert.i, align 8
  %104 = load i32, ptr %3, align 4
  %105 = add nsw i32 %104, -1
  store i32 %105, ptr %3, align 4
  %106 = sext i32 %105 to i64
  %107 = getelementptr inbounds i32, ptr %103, i64 %106
  %108 = load i32, ptr %107, align 4
  %109 = or i32 %108, 16
  %110 = load i32, ptr %1, align 8
  %111 = icmp eq i32 %105, %110
  br i1 %111, label %Vec_IntPush.exit47.sink.split, label %.sink.split

Vec_IntPush.exit47.sink.split:                    ; preds = %102
  %112 = icmp slt i32 %104, 17
  %113 = shl nuw nsw i32 %105, 1
  %114 = zext nneg i32 %113 to i64
  %115 = shl nuw nsw i64 %114, 2
  %.sink51 = select i1 %112, i64 64, i64 %115
  %.sink = select i1 %112, i32 16, i32 %113
  %116 = tail call ptr @realloc(ptr noundef nonnull %103, i64 noundef %.sink51) #9
  store ptr %116, ptr %.phi.trans.insert.i, align 8
  store i32 %.sink, ptr %1, align 8
  br label %.sink.split

.sink.split:                                      ; preds = %102, %Vec_IntPush.exit47.sink.split, %98, %Vec_IntGrow.exit.i39, %.Vec_IntGrow.exit10_crit_edge.i34
  %.sink54 = phi ptr [ %.pre.i36, %.Vec_IntGrow.exit10_crit_edge.i34 ], [ %99, %98 ], [ %88, %Vec_IntGrow.exit.i39 ], [ %103, %102 ], [ %116, %Vec_IntPush.exit47.sink.split ]
  %.sink52 = phi i32 [ %76, %.Vec_IntGrow.exit10_crit_edge.i34 ], [ %76, %98 ], [ %76, %Vec_IntGrow.exit.i39 ], [ %109, %102 ], [ %109, %Vec_IntPush.exit47.sink.split ]
  %117 = load i32, ptr %3, align 4
  %118 = add nsw i32 %117, 1
  store i32 %118, ptr %3, align 4
  %119 = sext i32 %117 to i64
  %120 = getelementptr inbounds i32, ptr %.sink54, i64 %119
  store i32 %.sink52, ptr %120, align 4
  br label %121

121:                                              ; preds = %.sink.split, %100
  %.val.i = load i32, ptr %3, align 4
  %122 = add nsw i32 %.val.i, -1
  %123 = tail call i32 @Ivy_TruthDsdCompute_rec(i32 noundef %122, ptr noundef nonnull readonly %1)
  %.not26 = icmp eq i32 %0, %123
  br i1 %.not26, label %125, label %124

124:                                              ; preds = %121
  %puts = tail call i32 @puts(ptr nonnull dereferenceable(1) @str.2)
  br label %125

125:                                              ; preds = %121, %124, %65, %Vec_IntPush.exit33
  %.0 = phi i32 [ 1, %Vec_IntPush.exit33 ], [ 0, %65 ], [ 1, %124 ], [ 1, %121 ]
  ret i32 %.0
}